; ModuleID = '36/59.c'
source_filename = "36/59.c"
target datalayout = "e-m:e-p270:32:32-p271:32:32-p272:64:64-i64:64-f80:128-n8:16:32:64-S128"
target triple = "x86_64-pc-linux-gnu"

@.str = private unnamed_addr constant [3 x i8] c"%s\00", align 1
@.str.1 = private unnamed_addr constant [3 x i8] c"NO\00", align 1
@.str.2 = private unnamed_addr constant [4 x i8] c"YES\00", align 1

; Function Attrs: noinline nounwind uwtable
define dso_local void @main() #0 {
  %1 = alloca [80 x i8], align 16
  %2 = alloca [80 x i8], align 16
  %3 = alloca i8, align 1
  %4 = alloca i8, align 1
  %5 = alloca i32, align 4
  %6 = alloca i32, align 4
  %7 = alloca i32, align 4
  %8 = alloca i32, align 4
  %9 = getelementptr inbounds [80 x i8], [80 x i8]* %1, i64 0, i64 0
  %10 = call i32 (i8*, ...) @__isoc99_scanf(i8* getelementptr inbounds ([3 x i8], [3 x i8]* @.str, i64 0, i64 0), i8* %9)
  %11 = getelementptr inbounds [80 x i8], [80 x i8]* %2, i64 0, i64 0
  %12 = call i32 (i8*, ...) @__isoc99_scanf(i8* getelementptr inbounds ([3 x i8], [3 x i8]* @.str, i64 0, i64 0), i8* %11)
  %13 = getelementptr inbounds [80 x i8], [80 x i8]* %1, i64 0, i64 0
  %14 = call i64 @strlen(i8* %13) #3
  %15 = trunc i64 %14 to i32
  store i32 %15, i32* %5, align 4
  %16 = getelementptr inbounds [80 x i8], [80 x i8]* %2, i64 0, i64 0
  %17 = call i64 @strlen(i8* %16) #3
  %18 = trunc i64 %17 to i32
  store i32 %18, i32* %6, align 4
  %19 = load i32, i32* %5, align 4
  %20 = load i32, i32* %6, align 4
  %21 = icmp ne i32 %19, %20
  br i1 %21, label %22, label %24

22:                                               ; preds = %0
  %23 = call i32 (i8*, ...) @printf(i8* getelementptr inbounds ([3 x i8], [3 x i8]* @.str.1, i64 0, i64 0))
  br label %160

24:                                               ; preds = %0
  %25 = load i32, i32* %6, align 4
  store i32 %25, i32* %5, align 4
  %26 = icmp ne i32 %25, 0
  br i1 %26, label %27, label %159

27:                                               ; preds = %24
  store i32 0, i32* %7, align 4
  br label %28

28:                                               ; preds = %71, %27
  %29 = load i32, i32* %7, align 4
  %30 = load i32, i32* %5, align 4
  %31 = icmp slt i32 %29, %30
  br i1 %31, label %32, label %74

32:                                               ; preds = %28
  %33 = load i32, i32* %7, align 4
  store i32 %33, i32* %8, align 4
  br label %34

34:                                               ; preds = %67, %32
  %35 = load i32, i32* %8, align 4
  %36 = load i32, i32* %5, align 4
  %37 = icmp slt i32 %35, %36
  br i1 %37, label %38, label %70

38:                                               ; preds = %34
  %39 = load i32, i32* %8, align 4
  %40 = sext i32 %39 to i64
  %41 = getelementptr inbounds [80 x i8], [80 x i8]* %1, i64 0, i64 %40
  %42 = load i8, i8* %41, align 1
  %43 = sext i8 %42 to i32
  %44 = load i32, i32* %7, align 4
  %45 = sext i32 %44 to i64
  %46 = getelementptr inbounds [80 x i8], [80 x i8]* %1, i64 0, i64 %45
  %47 = load i8, i8* %46, align 1
  %48 = sext i8 %47 to i32
  %49 = icmp slt i32 %43, %48
  br i1 %49, label %50, label %66

50:                                               ; preds = %38
  %51 = load i32, i32* %7, align 4
  %52 = sext i32 %51 to i64
  %53 = getelementptr inbounds [80 x i8], [80 x i8]* %1, i64 0, i64 %52
  %54 = load i8, i8* %53, align 1
  store i8 %54, i8* %3, align 1
  %55 = load i32, i32* %8, align 4
  %56 = sext i32 %55 to i64
  %57 = getelementptr inbounds [80 x i8], [80 x i8]* %1, i64 0, i64 %56
  %58 = load i8, i8* %57, align 1
  %59 = load i32, i32* %7, align 4
  %60 = sext i32 %59 to i64
  %61 = getelementptr inbounds [80 x i8], [80 x i8]* %1, i64 0, i64 %60
  store i8 %58, i8* %61, align 1
  %62 = load i8, i8* %3, align 1
  %63 = load i32, i32* %8, align 4
  %64 = sext i32 %63 to i64
  %65 = getelementptr inbounds [80 x i8], [80 x i8]* %1, i64 0, i64 %64
  store i8 %62, i8* %65, align 1
  br label %66

66:                                               ; preds = %50, %38
  br label %67

67:                                               ; preds = %66
  %68 = load i32, i32* %8, align 4
  %69 = add nsw i32 %68, 1
  store i32 %69, i32* %8, align 4
  br label %34

70:                                               ; preds = %34
  br label %71

71:                                               ; preds = %70
  %72 = load i32, i32* %7, align 4
  %73 = add nsw i32 %72, 1
  store i32 %73, i32* %7, align 4
  br label %28

74:                                               ; preds = %28
  store i32 0, i32* %7, align 4
  br label %75

75:                                               ; preds = %118, %74
  %76 = load i32, i32* %7, align 4
  %77 = load i32, i32* %5, align 4
  %78 = icmp slt i32 %76, %77
  br i1 %78, label %79, label %121

79:                                               ; preds = %75
  %80 = load i32, i32* %7, align 4
  store i32 %80, i32* %8, align 4
  br label %81

81:                                               ; preds = %114, %79
  %82 = load i32, i32* %8, align 4
  %83 = load i32, i32* %5, align 4
  %84 = icmp slt i32 %82, %83
  br i1 %84, label %85, label %117

85:                                               ; preds = %81
  %86 = load i32, i32* %8, align 4
  %87 = sext i32 %86 to i64
  %88 = getelementptr inbounds [80 x i8], [80 x i8]* %2, i64 0, i64 %87
  %89 = load i8, i8* %88, align 1
  %90 = sext i8 %89 to i32
  %91 = load i32, i32* %7, align 4
  %92 = sext i32 %91 to i64
  %93 = getelementptr inbounds [80 x i8], [80 x i8]* %2, i64 0, i64 %92
  %94 = load i8, i8* %93, align 1
  %95 = sext i8 %94 to i32
  %96 = icmp slt i32 %90, %95
  br i1 %96, label %97, label %113

97:                                               ; preds = %85
  %98 = load i32, i32* %7, align 4
  %99 = sext i32 %98 to i64
  %100 = getelementptr inbounds [80 x i8], [80 x i8]* %2, i64 0, i64 %99
  %101 = load i8, i8* %100, align 1
  store i8 %101, i8* %3, align 1
  %102 = load i32, i32* %8, align 4
  %103 = sext i32 %102 to i64
  %104 = getelementptr inbounds [80 x i8], [80 x i8]* %2, i64 0, i64 %103
  %105 = load i8, i8* %104, align 1
  %106 = load i32, i32* %7, align 4
  %107 = sext i32 %106 to i64
  %108 = getelementptr inbounds [80 x i8], [80 x i8]* %2, i64 0, i64 %107
  store i8 %105, i8* %108, align 1
  %109 = load i8, i8* %3, align 1
  %110 = load i32, i32* %8, align 4
  %111 = sext i32 %110 to i64
  %112 = getelementptr inbounds [80 x i8], [80 x i8]* %2, i64 0, i64 %111
  store i8 %109, i8* %112, align 1
  br label %113

113:                                              ; preds = %97, %85
  br label %114

114:                                              ; preds = %113
  %115 = load i32, i32* %8, align 4
  %116 = add nsw i32 %115, 1
  store i32 %116, i32* %8, align 4
  br label %81

117:                                              ; preds = %81
  br label %118

118:                                              ; preds = %117
  %119 = load i32, i32* %7, align 4
  %120 = add nsw i32 %119, 1
  store i32 %120, i32* %7, align 4
  br label %75

121:                                              ; preds = %75
  store i32 0, i32* %7, align 4
  br label %122

122:                                              ; preds = %141, %121
  %123 = load i32, i32* %7, align 4
  %124 = load i32, i32* %5, align 4
  %125 = icmp slt i32 %123, %124
  br i1 %125, label %126, label %144

126:                                              ; preds = %122
  %127 = load i32, i32* %7, align 4
  %128 = sext i32 %127 to i64
  %129 = getelementptr inbounds [80 x i8], [80 x i8]* %2, i64 0, i64 %128
  %130 = load i8, i8* %129, align 1
  %131 = load i32, i32* %7, align 4
  %132 = sext i32 %131 to i64
  %133 = getelementptr inbounds [80 x i8], [80 x i8]* %1, i64 0, i64 %132
  store i8 %130, i8* %133, align 1
  %134 = icmp ne i8 %130, 0
  br i1 %134, label %135, label %140

135:                                              ; preds = %126
  %136 = load i8, i8* %4, align 1
  %137 = sext i8 %136 to i32
  %138 = add nsw i32 %137, 1
  %139 = trunc i32 %138 to i8
  store i8 %139, i8* %4, align 1
  br label %140

140:                                              ; preds = %135, %126
  br label %141

141:                                              ; preds = %140
  %142 = load i32, i32* %7, align 4
  %143 = add nsw i32 %142, 1
  store i32 %143, i32* %7, align 4
  br label %122

144:                                              ; preds = %122
  %145 = load i32, i32* %5, align 4
  %146 = trunc i32 %145 to i8
  store i8 %146, i8* %4, align 1
  %147 = icmp ne i8 %146, 0
  br i1 %147, label %148, label %150

148:                                              ; preds = %144
  %149 = call i32 (i8*, ...) @printf(i8* getelementptr inbounds ([4 x i8], [4 x i8]* @.str.2, i64 0, i64 0))
  br label %158

150:                                              ; preds = %144
  %151 = load i8, i8* %4, align 1
  %152 = sext i8 %151 to i32
  %153 = load i32, i32* %5, align 4
  %154 = icmp ne i32 %152, %153
  br i1 %154, label %155, label %157

155:                                              ; preds = %150
  %156 = call i32 (i8*, ...) @printf(i8* getelementptr inbounds ([3 x i8], [3 x i8]* @.str.1, i64 0, i64 0))
  br label %157

157:                                              ; preds = %155, %150
  br label %158

158:                                              ; preds = %157, %148
  br label %159

159:                                              ; preds = %158, %24
  br label %160

160:                                              ; preds = %159, %22
  ret void
}

declare dso_local i32 @__isoc99_scanf(i8*, ...) #1

; Function Attrs: nounwind readonly
declare dso_local i64 @strlen(i8*) #2

declare dso_local i32 @printf(i8*, ...) #1


!llvm.module.flags = !{!0}
!llvm.ident = !{!1}

!0 = !{i32 1, !"wchar_size", i32 4}
!1 = !{!"clang version 10.0.0-4ubuntu1 "}
